target datalayout = "e-m:e-p270:32:32-p271:32:32-p272:64:64-i64:64-i128:128-f80:128-n8:16:32:64-S128"
target triple = "x86_64-pc-linux-gnu"

%struct.ImVec2 = type { float, float }
%struct.ImGuiPlotArrayGetterData = type <{ ptr, i32, [4 x i8] }>

; Function Attrs: mustprogress nounwind uwtable
define linkonce_odr dso_local void @_ZN24ImGuiPlotArrayGetterDataC2EPKfi(ptr noundef nonnull align 8 dereferenceable(12) %0, ptr noundef %1, i32 noundef %2) unnamed_addr #4 comdat align 2 {
  %4 = alloca ptr, align 8
  %5 = alloca ptr, align 8
  %6 = alloca i32, align 4
  store ptr %0, ptr %4, align 8, !tbaa !747
  store ptr %1, ptr %5, align 8, !tbaa !321
  store i32 %2, ptr %6, align 4, !tbaa !9
  %7 = load ptr, ptr %4, align 8
  %8 = load ptr, ptr %5, align 8, !tbaa !321
  %9 = getelementptr inbounds nuw %struct.ImGuiPlotArrayGetterData, ptr %7, i32 0, i32 0
  store ptr %8, ptr %9, align 8, !tbaa !749
  %10 = load i32, ptr %6, align 4, !tbaa !9
  %11 = getelementptr inbounds nuw %struct.ImGuiPlotArrayGetterData, ptr %7, i32 0, i32 1
  store i32 %10, ptr %11, align 8, !tbaa !751
  ret void
}

; Function Attrs: mustprogress uwtable
define dso_local void @_ZN5ImGui13PlotHistogramEPKcPKfiiS1_ff6ImVec2i(ptr noundef %0, ptr noundef %1, i32 noundef %2, i32 noundef %3, ptr noundef %4, float noundef %5, float noundef %6, <2 x float> %7, i32 noundef %8) #0 {
  %10 = alloca %struct.ImVec2, align 4
  %11 = alloca ptr, align 8
  %12 = alloca ptr, align 8
  %13 = alloca i32, align 4
  %14 = alloca i32, align 4
  %15 = alloca ptr, align 8
  %16 = alloca float, align 4
  %17 = alloca float, align 4
  %18 = alloca i32, align 4
  %19 = alloca %struct.ImGuiPlotArrayGetterData, align 8
  store <2 x float> %7, ptr %10, align 4
  store ptr %0, ptr %11, align 8, !tbaa !4
  store ptr %1, ptr %12, align 8, !tbaa !321
  store i32 %2, ptr %13, align 4, !tbaa !9
  store i32 %3, ptr %14, align 4, !tbaa !9
  store ptr %4, ptr %15, align 8, !tbaa !4
  store float %5, ptr %16, align 4, !tbaa !66
  store float %6, ptr %17, align 4, !tbaa !66
  store i32 %8, ptr %18, align 4, !tbaa !9
  call void @llvm.lifetime.start.p0(i64 16, ptr %19) #17
  %20 = load ptr, ptr %12, align 8, !tbaa !321
  %21 = load i32, ptr %18, align 4, !tbaa !9
  call void @_ZN24ImGuiPlotArrayGetterDataC2EPKfi(ptr noundef nonnull align 8 dereferenceable(12) %19, ptr noundef %20, i32 noundef %21)
  %22 = load ptr, ptr %11, align 8, !tbaa !4
  %23 = load i32, ptr %13, align 4, !tbaa !9
  %24 = load i32, ptr %14, align 4, !tbaa !9
  %25 = load ptr, ptr %15, align 8, !tbaa !4
  %26 = load float, ptr %16, align 4, !tbaa !66
  %27 = load float, ptr %17, align 4, !tbaa !66
  %28 = call noundef i32 @_ZN5ImGui6PlotExE13ImGuiPlotTypePKcPFfPviES3_iiS2_ffRK6ImVec2(i32 noundef 1, ptr noundef %22, ptr noundef @_ZL16Plot_ArrayGetterPvi, ptr noundef %19, i32 noundef %23, i32 noundef %24, ptr noundef %25, float noundef %26, float noundef %27, ptr noundef nonnull align 4 dereferenceable(8) %10)
  call void @llvm.lifetime.end.p0(i64 16, ptr %19) #17
  ret void
}