; Function Attrs: mustprogress uwtable
define dso_local void @_ZN5ImGui13PlotHistogramEPKcPKfiiS1_ff6ImVec2i(ptr noundef %0, ptr noundef %1, i32 noundef %2, i32 noundef %3, ptr noundef %4, float noundef %5, float noundef %6, <2 x float> %7, i32 noundef %8) local_unnamed_addr #0 {
  %10 = alloca %struct.ImVec2, align 8
  %11 = alloca %struct.ImGuiPlotArrayGetterData, align 8
  store <2 x float> %7, ptr %10, align 8
  call void @llvm.lifetime.start.p0(i64 16, ptr nonnull %11) #43
  store ptr %1, ptr %11, align 8, !tbaa !659
  %12 = getelementptr inbounds nuw i8, ptr %11, i64 8
  store i32 %8, ptr %12, align 8, !tbaa !661
  %13 = call noundef i32 @_ZN5ImGui6PlotExE13ImGuiPlotTypePKcPFfPviES3_iiS2_ffRK6ImVec2(i32 noundef 1, ptr noundef %0, ptr noundef nonnull @_ZL16Plot_ArrayGetterPvi, ptr noundef nonnull %11, i32 noundef %2, i32 noundef %3, ptr noundef %4, float noundef %5, float noundef %6, ptr noundef nonnull align 4 dereferenceable(8) %10)
  call void @llvm.lifetime.end.p0(i64 16, ptr nonnull %11) #43
  ret void
}